; Function Attrs: uwtable
define void @_ZTv0_n32_N5arrow3ipc8internal26IoRecordedRandomAccessFile4ReadElPv(ptr noalias sret(%"class.arrow::Result.76") align 8 %agg.result, ptr noundef %this, i64 noundef %nbytes, ptr noundef %out) unnamed_addr #14 align 2 {
entry:
  %0 = load ptr, ptr %this, align 8
  %1 = getelementptr inbounds i8, ptr %0, i64 -32
  %2 = load i64, ptr %1, align 8
  %3 = getelementptr inbounds i8, ptr %this, i64 %2
  tail call void @_ZN5arrow3ipc8internal26IoRecordedRandomAccessFile4ReadElPv(ptr sret(%"class.arrow::Result.76") align 8 %agg.result, ptr noundef nonnull align 8 dereferenceable(112) %3, i64 noundef %nbytes, ptr noundef %out)
  ret void
}